; ModuleID = '63/1008.c'
source_filename = "63/1008.c"
target datalayout = "e-m:e-p270:32:32-p271:32:32-p272:64:64-i64:64-f80:128-n8:16:32:64-S128"
target triple = "x86_64-pc-linux-gnu"

@.str = private unnamed_addr constant [6 x i8] c"%d %d\00", align 1
@.str.1 = private unnamed_addr constant [3 x i8] c"%d\00", align 1
@.str.2 = private unnamed_addr constant [4 x i8] c" %d\00", align 1
@.str.3 = private unnamed_addr constant [2 x i8] c"\0A\00", align 1

; Function Attrs: noinline nounwind uwtable
define dso_local i32 @main() #0 {
  %1 = alloca i32, align 4
  %2 = alloca i32, align 4
  %3 = alloca i32, align 4
  %4 = alloca i32, align 4
  %5 = alloca i32, align 4
  %6 = alloca i32, align 4
  %7 = alloca i32, align 4
  %8 = alloca [100 x [100 x i32]], align 16
  %9 = alloca i32, align 4
  %10 = alloca i32, align 4
  %11 = alloca [100 x [100 x i32]], align 16
  %12 = alloca [100 x [100 x i32]], align 16
  store i32 0, i32* %1, align 4
  %13 = call i32 (i8*, ...) @__isoc99_scanf(i8* getelementptr inbounds ([6 x i8], [6 x i8]* @.str, i64 0, i64 0), i32* %6, i32* %7)
  store i32 0, i32* %2, align 4
  br label %14

14:                                               ; preds = %35, %0
  %15 = load i32, i32* %2, align 4
  %16 = load i32, i32* %6, align 4
  %17 = icmp slt i32 %15, %16
  br i1 %17, label %18, label %38

18:                                               ; preds = %14
  store i32 0, i32* %3, align 4
  br label %19

19:                                               ; preds = %31, %18
  %20 = load i32, i32* %3, align 4
  %21 = load i32, i32* %7, align 4
  %22 = icmp slt i32 %20, %21
  br i1 %22, label %23, label %34

23:                                               ; preds = %19
  %24 = load i32, i32* %2, align 4
  %25 = sext i32 %24 to i64
  %26 = getelementptr inbounds [100 x [100 x i32]], [100 x [100 x i32]]* %8, i64 0, i64 %25
  %27 = load i32, i32* %3, align 4
  %28 = sext i32 %27 to i64
  %29 = getelementptr inbounds [100 x i32], [100 x i32]* %26, i64 0, i64 %28
  %30 = call i32 (i8*, ...) @__isoc99_scanf(i8* getelementptr inbounds ([3 x i8], [3 x i8]* @.str.1, i64 0, i64 0), i32* %29)
  br label %31

31:                                               ; preds = %23
  %32 = load i32, i32* %3, align 4
  %33 = add nsw i32 %32, 1
  store i32 %33, i32* %3, align 4
  br label %19

34:                                               ; preds = %19
  br label %35

35:                                               ; preds = %34
  %36 = load i32, i32* %2, align 4
  %37 = add nsw i32 %36, 1
  store i32 %37, i32* %2, align 4
  br label %14

38:                                               ; preds = %14
  %39 = call i32 (i8*, ...) @__isoc99_scanf(i8* getelementptr inbounds ([6 x i8], [6 x i8]* @.str, i64 0, i64 0), i32* %9, i32* %10)
  store i32 0, i32* %2, align 4
  br label %40

40:                                               ; preds = %61, %38
  %41 = load i32, i32* %2, align 4
  %42 = load i32, i32* %9, align 4
  %43 = icmp slt i32 %41, %42
  br i1 %43, label %44, label %64

44:                                               ; preds = %40
  store i32 0, i32* %3, align 4
  br label %45

45:                                               ; preds = %57, %44
  %46 = load i32, i32* %3, align 4
  %47 = load i32, i32* %10, align 4
  %48 = icmp slt i32 %46, %47
  br i1 %48, label %49, label %60

49:                                               ; preds = %45
  %50 = load i32, i32* %2, align 4
  %51 = sext i32 %50 to i64
  %52 = getelementptr inbounds [100 x [100 x i32]], [100 x [100 x i32]]* %11, i64 0, i64 %51
  %53 = load i32, i32* %3, align 4
  %54 = sext i32 %53 to i64
  %55 = getelementptr inbounds [100 x i32], [100 x i32]* %52, i64 0, i64 %54
  %56 = call i32 (i8*, ...) @__isoc99_scanf(i8* getelementptr inbounds ([3 x i8], [3 x i8]* @.str.1, i64 0, i64 0), i32* %55)
  br label %57

57:                                               ; preds = %49
  %58 = load i32, i32* %3, align 4
  %59 = add nsw i32 %58, 1
  store i32 %59, i32* %3, align 4
  br label %45

60:                                               ; preds = %45
  br label %61

61:                                               ; preds = %60
  %62 = load i32, i32* %2, align 4
  %63 = add nsw i32 %62, 1
  store i32 %63, i32* %2, align 4
  br label %40

64:                                               ; preds = %40
  store i32 0, i32* %2, align 4
  br label %65

65:                                               ; preds = %123, %64
  %66 = load i32, i32* %2, align 4
  %67 = load i32, i32* %6, align 4
  %68 = icmp slt i32 %66, %67
  br i1 %68, label %69, label %126

69:                                               ; preds = %65
  store i32 0, i32* %3, align 4
  br label %70

70:                                               ; preds = %119, %69
  %71 = load i32, i32* %3, align 4
  %72 = load i32, i32* %10, align 4
  %73 = icmp slt i32 %71, %72
  br i1 %73, label %74, label %122

74:                                               ; preds = %70
  %75 = load i32, i32* %2, align 4
  %76 = sext i32 %75 to i64
  %77 = getelementptr inbounds [100 x [100 x i32]], [100 x [100 x i32]]* %12, i64 0, i64 %76
  %78 = load i32, i32* %3, align 4
  %79 = sext i32 %78 to i64
  %80 = getelementptr inbounds [100 x i32], [100 x i32]* %77, i64 0, i64 %79
  store i32 0, i32* %80, align 4
  store i32 0, i32* %4, align 4
  br label %81

81:                                               ; preds = %115, %74
  %82 = load i32, i32* %4, align 4
  %83 = load i32, i32* %7, align 4
  %84 = icmp slt i32 %82, %83
  br i1 %84, label %85, label %118

85:                                               ; preds = %81
  %86 = load i32, i32* %2, align 4
  %87 = sext i32 %86 to i64
  %88 = getelementptr inbounds [100 x [100 x i32]], [100 x [100 x i32]]* %12, i64 0, i64 %87
  %89 = load i32, i32* %3, align 4
  %90 = sext i32 %89 to i64
  %91 = getelementptr inbounds [100 x i32], [100 x i32]* %88, i64 0, i64 %90
  %92 = load i32, i32* %91, align 4
  %93 = load i32, i32* %2, align 4
  %94 = sext i32 %93 to i64
  %95 = getelementptr inbounds [100 x [100 x i32]], [100 x [100 x i32]]* %8, i64 0, i64 %94
  %96 = load i32, i32* %4, align 4
  %97 = sext i32 %96 to i64
  %98 = getelementptr inbounds [100 x i32], [100 x i32]* %95, i64 0, i64 %97
  %99 = load i32, i32* %98, align 4
  %100 = load i32, i32* %4, align 4
  %101 = sext i32 %100 to i64
  %102 = getelementptr inbounds [100 x [100 x i32]], [100 x [100 x i32]]* %11, i64 0, i64 %101
  %103 = load i32, i32* %3, align 4
  %104 = sext i32 %103 to i64
  %105 = getelementptr inbounds [100 x i32], [100 x i32]* %102, i64 0, i64 %104
  %106 = load i32, i32* %105, align 4
  %107 = mul nsw i32 %99, %106
  %108 = add nsw i32 %92, %107
  %109 = load i32, i32* %2, align 4
  %110 = sext i32 %109 to i64
  %111 = getelementptr inbounds [100 x [100 x i32]], [100 x [100 x i32]]* %12, i64 0, i64 %110
  %112 = load i32, i32* %3, align 4
  %113 = sext i32 %112 to i64
  %114 = getelementptr inbounds [100 x i32], [100 x i32]* %111, i64 0, i64 %113
  store i32 %108, i32* %114, align 4
  br label %115

115:                                              ; preds = %85
  %116 = load i32, i32* %4, align 4
  %117 = add nsw i32 %116, 1
  store i32 %117, i32* %4, align 4
  br label %81

118:                                              ; preds = %81
  br label %119

119:                                              ; preds = %118
  %120 = load i32, i32* %3, align 4
  %121 = add nsw i32 %120, 1
  store i32 %121, i32* %3, align 4
  br label %70

122:                                              ; preds = %70
  br label %123

123:                                              ; preds = %122
  %124 = load i32, i32* %2, align 4
  %125 = add nsw i32 %124, 1
  store i32 %125, i32* %2, align 4
  br label %65

126:                                              ; preds = %65
  store i32 0, i32* %2, align 4
  br label %127

127:                                              ; preds = %156, %126
  %128 = load i32, i32* %2, align 4
  %129 = load i32, i32* %6, align 4
  %130 = icmp slt i32 %128, %129
  br i1 %130, label %131, label %159

131:                                              ; preds = %127
  %132 = load i32, i32* %2, align 4
  %133 = sext i32 %132 to i64
  %134 = getelementptr inbounds [100 x [100 x i32]], [100 x [100 x i32]]* %12, i64 0, i64 %133
  %135 = getelementptr inbounds [100 x i32], [100 x i32]* %134, i64 0, i64 0
  %136 = load i32, i32* %135, align 16
  %137 = call i32 (i8*, ...) @printf(i8* getelementptr inbounds ([3 x i8], [3 x i8]* @.str.1, i64 0, i64 0), i32 %136)
  store i32 1, i32* %3, align 4
  br label %138

138:                                              ; preds = %151, %131
  %139 = load i32, i32* %3, align 4
  %140 = load i32, i32* %10, align 4
  %141 = icmp slt i32 %139, %140
  br i1 %141, label %142, label %154

142:                                              ; preds = %138
  %143 = load i32, i32* %2, align 4
  %144 = sext i32 %143 to i64
  %145 = getelementptr inbounds [100 x [100 x i32]], [100 x [100 x i32]]* %12, i64 0, i64 %144
  %146 = load i32, i32* %3, align 4
  %147 = sext i32 %146 to i64
  %148 = getelementptr inbounds [100 x i32], [100 x i32]* %145, i64 0, i64 %147
  %149 = load i32, i32* %148, align 4
  %150 = call i32 (i8*, ...) @printf(i8* getelementptr inbounds ([4 x i8], [4 x i8]* @.str.2, i64 0, i64 0), i32 %149)
  br label %151

151:                                              ; preds = %142
  %152 = load i32, i32* %3, align 4
  %153 = add nsw i32 %152, 1
  store i32 %153, i32* %3, align 4
  br label %138

154:                                              ; preds = %138
  %155 = call i32 (i8*, ...) @printf(i8* getelementptr inbounds ([2 x i8], [2 x i8]* @.str.3, i64 0, i64 0))
  br label %156

156:                                              ; preds = %154
  %157 = load i32, i32* %2, align 4
  %158 = add nsw i32 %157, 1
  store i32 %158, i32* %2, align 4
  br label %127

159:                                              ; preds = %127
  %160 = load i32, i32* %1, align 4
  ret i32 %160
}

declare dso_local i32 @__isoc99_scanf(i8*, ...) #1

declare dso_local i32 @printf(i8*, ...) #1


!llvm.module.flags = !{!0}
!llvm.ident = !{!1}

!0 = !{i32 1, !"wchar_size", i32 4}
!1 = !{!"clang version 10.0.0-4ubuntu1 "}
